target datalayout = "e-m:e-p270:32:32-p271:32:32-p272:64:64-i64:64-i128:128-f80:128-n8:16:32:64-S128"
target triple = "x86_64-pc-linux-gnu"

@.str.1 = private unnamed_addr constant [8 x i8] c"Success\00", align 1
@.str.2 = private unnamed_addr constant [26 x i8] c"PortAudio not initialized\00", align 1
@.str.3 = private unnamed_addr constant [25 x i8] c"Unanticipated host error\00", align 1
@.str.4 = private unnamed_addr constant [27 x i8] c"Invalid number of channels\00", align 1
@.str.5 = private unnamed_addr constant [20 x i8] c"Invalid sample rate\00", align 1
@.str.6 = private unnamed_addr constant [15 x i8] c"Invalid device\00", align 1
@.str.7 = private unnamed_addr constant [13 x i8] c"Invalid flag\00", align 1
@.str.8 = private unnamed_addr constant [28 x i8] c"Sample format not supported\00", align 1
@.str.9 = private unnamed_addr constant [35 x i8] c"Illegal combination of I/O devices\00", align 1
@.str.10 = private unnamed_addr constant [20 x i8] c"Insufficient memory\00", align 1
@.str.11 = private unnamed_addr constant [15 x i8] c"Buffer too big\00", align 1
@.str.12 = private unnamed_addr constant [17 x i8] c"Buffer too small\00", align 1
@.str.13 = private unnamed_addr constant [30 x i8] c"No callback routine specified\00", align 1
@.str.14 = private unnamed_addr constant [23 x i8] c"Invalid stream pointer\00", align 1
@.str.15 = private unnamed_addr constant [15 x i8] c"Wait timed out\00", align 1
@.str.16 = private unnamed_addr constant [25 x i8] c"Internal PortAudio error\00", align 1
@.str.17 = private unnamed_addr constant [19 x i8] c"Device unavailable\00", align 1
@.str.18 = private unnamed_addr constant [43 x i8] c"Incompatible host API specific stream info\00", align 1
@.str.19 = private unnamed_addr constant [18 x i8] c"Stream is stopped\00", align 1
@.str.20 = private unnamed_addr constant [22 x i8] c"Stream is not stopped\00", align 1
@.str.21 = private unnamed_addr constant [17 x i8] c"Input overflowed\00", align 1
@.str.22 = private unnamed_addr constant [19 x i8] c"Output underflowed\00", align 1
@.str.23 = private unnamed_addr constant [19 x i8] c"Host API not found\00", align 1
@.str.24 = private unnamed_addr constant [17 x i8] c"Invalid host API\00", align 1
@.str.25 = private unnamed_addr constant [34 x i8] c"Can't read from a callback stream\00", align 1
@.str.26 = private unnamed_addr constant [33 x i8] c"Can't write to a callback stream\00", align 1
@.str.27 = private unnamed_addr constant [38 x i8] c"Can't read from an output only stream\00", align 1
@.str.28 = private unnamed_addr constant [36 x i8] c"Can't write to an input only stream\00", align 1
@.str.29 = private unnamed_addr constant [29 x i8] c"Incompatible stream host API\00", align 1
@.str.30 = private unnamed_addr constant [19 x i8] c"Bad buffer pointer\00", align 1
@.str.31 = private unnamed_addr constant [45 x i8] c"PortAudio can not be initialized recursively\00", align 1
@.str.32 = private unnamed_addr constant [45 x i8] c"Invalid error code (value greater than zero)\00", align 1
@.str.33 = private unnamed_addr constant [19 x i8] c"Invalid error code\00", align 1

; Function Attrs: nounwind uwtable
define ptr @Pa_GetErrorText(i32 noundef %0) #0 {
  %2 = alloca i32, align 4
  %3 = alloca ptr, align 8
  store i32 %0, ptr %2, align 4
  %4 = load i32, ptr %2, align 4
  switch i32 %4, label %36 [
    i32 0, label %5
    i32 -10000, label %6
    i32 -9999, label %7
    i32 -9998, label %8
    i32 -9997, label %9
    i32 -9996, label %10
    i32 -9995, label %11
    i32 -9994, label %12
    i32 -9993, label %13
    i32 -9992, label %14
    i32 -9991, label %15
    i32 -9990, label %16
    i32 -9989, label %17
    i32 -9988, label %18
    i32 -9987, label %19
    i32 -9986, label %20
    i32 -9985, label %21
    i32 -9984, label %22
    i32 -9983, label %23
    i32 -9982, label %24
    i32 -9981, label %25
    i32 -9980, label %26
    i32 -9979, label %27
    i32 -9978, label %28
    i32 -9977, label %29
    i32 -9976, label %30
    i32 -9975, label %31
    i32 -9974, label %32
    i32 -9973, label %33
    i32 -9972, label %34
    i32 -9971, label %35
  ]

5:                                                ; preds = %1
  store ptr @.str.1, ptr %3, align 8
  br label %42

6:                                                ; preds = %1
  store ptr @.str.2, ptr %3, align 8
  br label %42

7:                                                ; preds = %1
  store ptr @.str.3, ptr %3, align 8
  br label %42

8:                                                ; preds = %1
  store ptr @.str.4, ptr %3, align 8
  br label %42

9:                                                ; preds = %1
  store ptr @.str.5, ptr %3, align 8
  br label %42

10:                                               ; preds = %1
  store ptr @.str.6, ptr %3, align 8
  br label %42

11:                                               ; preds = %1
  store ptr @.str.7, ptr %3, align 8
  br label %42

12:                                               ; preds = %1
  store ptr @.str.8, ptr %3, align 8
  br label %42

13:                                               ; preds = %1
  store ptr @.str.9, ptr %3, align 8
  br label %42

14:                                               ; preds = %1
  store ptr @.str.10, ptr %3, align 8
  br label %42

15:                                               ; preds = %1
  store ptr @.str.11, ptr %3, align 8
  br label %42

16:                                               ; preds = %1
  store ptr @.str.12, ptr %3, align 8
  br label %42

17:                                               ; preds = %1
  store ptr @.str.13, ptr %3, align 8
  br label %42

18:                                               ; preds = %1
  store ptr @.str.14, ptr %3, align 8
  br label %42

19:                                               ; preds = %1
  store ptr @.str.15, ptr %3, align 8
  br label %42

20:                                               ; preds = %1
  store ptr @.str.16, ptr %3, align 8
  br label %42

21:                                               ; preds = %1
  store ptr @.str.17, ptr %3, align 8
  br label %42

22:                                               ; preds = %1
  store ptr @.str.18, ptr %3, align 8
  br label %42

23:                                               ; preds = %1
  store ptr @.str.19, ptr %3, align 8
  br label %42

24:                                               ; preds = %1
  store ptr @.str.20, ptr %3, align 8
  br label %42

25:                                               ; preds = %1
  store ptr @.str.21, ptr %3, align 8
  br label %42

26:                                               ; preds = %1
  store ptr @.str.22, ptr %3, align 8
  br label %42

27:                                               ; preds = %1
  store ptr @.str.23, ptr %3, align 8
  br label %42

28:                                               ; preds = %1
  store ptr @.str.24, ptr %3, align 8
  br label %42

29:                                               ; preds = %1
  store ptr @.str.25, ptr %3, align 8
  br label %42

30:                                               ; preds = %1
  store ptr @.str.26, ptr %3, align 8
  br label %42

31:                                               ; preds = %1
  store ptr @.str.27, ptr %3, align 8
  br label %42

32:                                               ; preds = %1
  store ptr @.str.28, ptr %3, align 8
  br label %42

33:                                               ; preds = %1
  store ptr @.str.29, ptr %3, align 8
  br label %42

34:                                               ; preds = %1
  store ptr @.str.30, ptr %3, align 8
  br label %42

35:                                               ; preds = %1
  store ptr @.str.31, ptr %3, align 8
  br label %42

36:                                               ; preds = %1
  %37 = load i32, ptr %2, align 4
  %38 = icmp sgt i32 %37, 0
  br i1 %38, label %39, label %40

39:                                               ; preds = %36
  store ptr @.str.32, ptr %3, align 8
  br label %41

40:                                               ; preds = %36
  store ptr @.str.33, ptr %3, align 8
  br label %41

41:                                               ; preds = %40, %39
  br label %42

42:                                               ; preds = %41, %35, %34, %33, %32, %31, %30, %29, %28, %27, %26, %25, %24, %23, %22, %21, %20, %19, %18, %17, %16, %15, %14, %13, %12, %11, %10, %9, %8, %7, %6, %5
  %43 = load ptr, ptr %3, align 8
  ret ptr %43
}