; Function Attrs: mustprogress nofree norecurse nosync nounwind willreturn memory(none) uwtable
define noundef nonnull ptr @Pa_GetErrorText(i32 noundef %0) local_unnamed_addr #0 {
  switch i32 %0, label %32 [
    i32 0, label %34
    i32 -10000, label %2
    i32 -9999, label %3
    i32 -9998, label %4
    i32 -9997, label %5
    i32 -9996, label %6
    i32 -9995, label %7
    i32 -9994, label %8
    i32 -9993, label %9
    i32 -9992, label %10
    i32 -9991, label %11
    i32 -9990, label %12
    i32 -9989, label %13
    i32 -9988, label %14
    i32 -9987, label %15
    i32 -9986, label %16
    i32 -9985, label %17
    i32 -9984, label %18
    i32 -9983, label %19
    i32 -9982, label %20
    i32 -9981, label %21
    i32 -9980, label %22
    i32 -9979, label %23
    i32 -9978, label %24
    i32 -9977, label %25
    i32 -9976, label %26
    i32 -9975, label %27
    i32 -9974, label %28
    i32 -9973, label %29
    i32 -9972, label %30
    i32 -9971, label %31
  ]

2:                                                ; preds = %1
  br label %34

3:                                                ; preds = %1
  br label %34

4:                                                ; preds = %1
  br label %34

5:                                                ; preds = %1
  br label %34

6:                                                ; preds = %1
  br label %34

7:                                                ; preds = %1
  br label %34

8:                                                ; preds = %1
  br label %34

9:                                                ; preds = %1
  br label %34

10:                                               ; preds = %1
  br label %34

11:                                               ; preds = %1
  br label %34

12:                                               ; preds = %1
  br label %34

13:                                               ; preds = %1
  br label %34

14:                                               ; preds = %1
  br label %34

15:                                               ; preds = %1
  br label %34

16:                                               ; preds = %1
  br label %34

17:                                               ; preds = %1
  br label %34

18:                                               ; preds = %1
  br label %34

19:                                               ; preds = %1
  br label %34

20:                                               ; preds = %1
  br label %34

21:                                               ; preds = %1
  br label %34

22:                                               ; preds = %1
  br label %34

23:                                               ; preds = %1
  br label %34

24:                                               ; preds = %1
  br label %34

25:                                               ; preds = %1
  br label %34

26:                                               ; preds = %1
  br label %34

27:                                               ; preds = %1
  br label %34

28:                                               ; preds = %1
  br label %34

29:                                               ; preds = %1
  br label %34

30:                                               ; preds = %1
  br label %34

31:                                               ; preds = %1
  br label %34

32:                                               ; preds = %1
  %33 = icmp sgt i32 %0, 0
  %.str.32..str.33 = select i1 %33, ptr @.str.32, ptr @.str.33
  br label %34

34:                                               ; preds = %32, %1, %31, %30, %29, %28, %27, %26, %25, %24, %23, %22, %21, %20, %19, %18, %17, %16, %15, %14, %13, %12, %11, %10, %9, %8, %7, %6, %5, %4, %3, %2
  %.0 = phi ptr [ @.str.31, %31 ], [ @.str.30, %30 ], [ @.str.29, %29 ], [ @.str.28, %28 ], [ @.str.27, %27 ], [ @.str.26, %26 ], [ @.str.25, %25 ], [ @.str.24, %24 ], [ @.str.23, %23 ], [ @.str.22, %22 ], [ @.str.21, %21 ], [ @.str.20, %20 ], [ @.str.19, %19 ], [ @.str.18, %18 ], [ @.str.17, %17 ], [ @.str.16, %16 ], [ @.str.15, %15 ], [ @.str.14, %14 ], [ @.str.13, %13 ], [ @.str.12, %12 ], [ @.str.11, %11 ], [ @.str.10, %10 ], [ @.str.9, %9 ], [ @.str.8, %8 ], [ @.str.7, %7 ], [ @.str.6, %6 ], [ @.str.5, %5 ], [ @.str.4, %4 ], [ @.str.3, %3 ], [ @.str.2, %2 ], [ @.str.1, %1 ], [ %.str.32..str.33, %32 ]
  ret ptr %.0
}